; Function Attrs: mustprogress uwtable
define void @_ZN8facebook4yoga4Node9setConfigEPNS0_6ConfigE(ptr noundef nonnull align 8 dereferenceable(584) %0, ptr noundef %1) local_unnamed_addr #3 align 2 {
  %3 = icmp ne ptr %1, null
  tail call void @_ZN8facebook4yoga11assertFatalEbPKc(i1 noundef zeroext %3, ptr noundef nonnull @.str.3)
  %4 = tail call noundef zeroext i1 @_ZNK8facebook4yoga6Config14useWebDefaultsEv(ptr noundef nonnull align 8 dereferenceable(48) %1)
  %5 = getelementptr inbounds nuw i8, ptr %0, i64 560
  %6 = load ptr, ptr %5, align 8, !tbaa !21
  %7 = tail call noundef zeroext i1 @_ZNK8facebook4yoga6Config14useWebDefaultsEv(ptr noundef nonnull align 8 dereferenceable(48) %6)
  %8 = xor i1 %4, %7
  %9 = xor i1 %8, true
  tail call void @_ZN8facebook4yoga21assertFatalWithConfigEPKNS0_6ConfigEbPKc(ptr noundef nonnull %1, i1 noundef zeroext %9, ptr noundef nonnull @.str.4)
  %10 = load ptr, ptr %5, align 8, !tbaa !21
  %11 = tail call noundef zeroext i1 @_ZN8facebook4yoga29configUpdateInvalidatesLayoutERKNS0_6ConfigES3_(ptr noundef nonnull align 8 dereferenceable(48) %10, ptr noundef nonnull align 8 dereferenceable(48) %1)
  br i1 %11, label %tailrecurse.i, label %22

tailrecurse.i:                                    ; preds = %2, %_ZN8facebook4yoga4Node8setDirtyEb.exit.i
  %.tr.i = phi ptr [ %21, %_ZN8facebook4yoga4Node8setDirtyEb.exit.i ], [ %0, %2 ]
  %12 = load i8, ptr %.tr.i, align 8
  %13 = and i8 %12, 4
  %.not.i = icmp eq i8 %13, 0
  br i1 %.not.i, label %14, label %_ZN8facebook4yoga4Node21markDirtyAndPropagateEv.exit

14:                                               ; preds = %tailrecurse.i
  %15 = or disjoint i8 %12, 4
  store i8 %15, ptr %.tr.i, align 8
  %16 = getelementptr inbounds nuw i8, ptr %.tr.i, i64 32
  %17 = load ptr, ptr %16, align 8, !tbaa !82
  %.not.i.i = icmp eq ptr %17, null
  br i1 %.not.i.i, label %_ZN8facebook4yoga4Node8setDirtyEb.exit.i, label %18

18:                                               ; preds = %14
  tail call void %17(ptr noundef nonnull align 8 dereferenceable(584) %.tr.i)
  br label %_ZN8facebook4yoga4Node8setDirtyEb.exit.i

_ZN8facebook4yoga4Node8setDirtyEb.exit.i:         ; preds = %18, %14
  %19 = getelementptr inbounds nuw i8, ptr %.tr.i, i64 188
  store float 0x7FF8000000000000, ptr %19, align 4, !tbaa !20
  %20 = getelementptr inbounds nuw i8, ptr %.tr.i, i64 528
  %21 = load ptr, ptr %20, align 8, !tbaa !90
  %.not1.i = icmp eq ptr %21, null
  br i1 %.not1.i, label %_ZN8facebook4yoga4Node21markDirtyAndPropagateEv.exit, label %tailrecurse.i

22:                                               ; preds = %2
  %23 = tail call noundef i32 @_ZNK8facebook4yoga6Config10getVersionEv(ptr noundef nonnull align 8 dereferenceable(48) %1) #25
  br label %_ZN8facebook4yoga4Node21markDirtyAndPropagateEv.exit

_ZN8facebook4yoga4Node21markDirtyAndPropagateEv.exit: ; preds = %_ZN8facebook4yoga4Node8setDirtyEb.exit.i, %tailrecurse.i, %22
  %.sink = phi i32 [ %23, %22 ], [ 0, %tailrecurse.i ], [ 0, %_ZN8facebook4yoga4Node8setDirtyEb.exit.i ]
  %24 = getelementptr inbounds nuw i8, ptr %0, i64 196
  store i32 %.sink, ptr %24, align 4, !tbaa !97
  store ptr %1, ptr %5, align 8, !tbaa !21
  ret void
}